target datalayout = "e-m:e-p270:32:32-p271:32:32-p272:64:64-i64:64-i128:128-f80:128-n8:16:32:64-S128"
target triple = "x86_64-unknown-linux-gnu"

%class.btGeneric6DofSpring2Constraint = type <{ %class.btTypedConstraint, %class.btTransform, %class.btTransform, [3 x %class.btJacobianEntry], [3 x %class.btJacobianEntry], %class.btTranslationalLimitMotor2, [3 x %class.btRotationalLimitMotor2], i32, %class.btTransform, %class.btTransform, %class.btVector3, [3 x %class.btVector3], %class.btVector3, float, float, i8, [3 x i8], i32, [4 x i8] }>
%class.btTypedConstraint = type { ptr, %struct.btTypedObject, i32, %union.anon.0, float, i8, i8, i32, ptr, ptr, float, float, ptr }
%struct.btTypedObject = type { i32 }
%union.anon.0 = type { ptr }
%class.btJacobianEntry = type { %class.btVector3, %class.btVector3, %class.btVector3, %class.btVector3, %class.btVector3, float }
%class.btTranslationalLimitMotor2 = type { %class.btVector3, %class.btVector3, %class.btVector3, %class.btVector3, %class.btVector3, %class.btVector3, %class.btVector3, [3 x i8], [3 x i8], [3 x i8], %class.btVector3, %class.btVector3, [3 x i8], %class.btVector3, [3 x i8], %class.btVector3, %class.btVector3, %class.btVector3, %class.btVector3, %class.btVector3, %class.btVector3, [3 x i32] }
%class.btRotationalLimitMotor2 = type { float, float, float, float, float, float, float, i8, float, float, i8, float, i8, float, i8, float, i8, float, float, float, float, i32 }
%class.btTransform = type { %class.btMatrix3x3, %class.btVector3 }
%class.btMatrix3x3 = type { [3 x %class.btVector3] }
%class.btVector3 = type { [4 x float] }

; Function Attrs: mustprogress nounwind uwtable
define linkonce_odr dso_local noundef ptr @_ZNK9btVector3cvPKfEv(ptr noundef nonnull align 4 dereferenceable(16) %this) #1 comdat align 2 {
entry:
  %this.addr = alloca ptr, align 8
  store ptr %this, ptr %this.addr, align 8
  %this1 = load ptr, ptr %this.addr, align 8
  %m_floats = getelementptr inbounds %class.btVector3, ptr %this1, i32 0, i32 0
  %arrayidx = getelementptr inbounds [4 x float], ptr %m_floats, i64 0, i64 0
  ret ptr %arrayidx
}

; Function Attrs: mustprogress uwtable
define dso_local noundef float @_ZNK30btGeneric6DofSpring2Constraint8getParamEii(ptr noundef nonnull align 8 dereferenceable(1484) %this, i32 noundef %num, i32 noundef %axis) unnamed_addr #2 align 2 {
entry:
  %this.addr = alloca ptr, align 8
  %num.addr = alloca i32, align 4
  %axis.addr = alloca i32, align 4
  %retVal = alloca float, align 4
  store ptr %this, ptr %this.addr, align 8
  store i32 %num, ptr %num.addr, align 4
  store i32 %axis, ptr %axis.addr, align 4
  %this1 = load ptr, ptr %this.addr, align 8
  store float 0.000000e+00, ptr %retVal, align 4
  %0 = load i32, ptr %axis.addr, align 4
  %cmp = icmp sge i32 %0, 0
  br i1 %cmp, label %land.lhs.true, label %if.else

land.lhs.true:                                    ; preds = %entry
  %1 = load i32, ptr %axis.addr, align 4
  %cmp2 = icmp slt i32 %1, 3
  br i1 %cmp2, label %if.then, label %if.else

if.then:                                          ; preds = %land.lhs.true
  %2 = load i32, ptr %num.addr, align 4
  switch i32 %2, label %sw.default [
    i32 2, label %sw.bb
    i32 4, label %sw.bb3
    i32 1, label %sw.bb8
    i32 3, label %sw.bb13
  ]

sw.bb:                                            ; preds = %if.then
  %m_linearLimits = getelementptr inbounds %class.btGeneric6DofSpring2Constraint, ptr %this1, i32 0, i32 5
  %m_stopERP = getelementptr inbounds %class.btTranslationalLimitMotor2, ptr %m_linearLimits, i32 0, i32 3
  %call = call noundef ptr @_ZNK9btVector3cvPKfEv(ptr noundef nonnull align 4 dereferenceable(16) %m_stopERP)
  %3 = load i32, ptr %axis.addr, align 4
  %idxprom = sext i32 %3 to i64
  %arrayidx = getelementptr inbounds float, ptr %call, i64 %idxprom
  %4 = load float, ptr %arrayidx, align 4
  store float %4, ptr %retVal, align 4
  br label %sw.epilog

sw.bb3:                                           ; preds = %if.then
  %m_linearLimits4 = getelementptr inbounds %class.btGeneric6DofSpring2Constraint, ptr %this1, i32 0, i32 5
  %m_stopCFM = getelementptr inbounds %class.btTranslationalLimitMotor2, ptr %m_linearLimits4, i32 0, i32 4
  %call5 = call noundef ptr @_ZNK9btVector3cvPKfEv(ptr noundef nonnull align 4 dereferenceable(16) %m_stopCFM)
  %5 = load i32, ptr %axis.addr, align 4
  %idxprom6 = sext i32 %5 to i64
  %arrayidx7 = getelementptr inbounds float, ptr %call5, i64 %idxprom6
  %6 = load float, ptr %arrayidx7, align 4
  store float %6, ptr %retVal, align 4
  br label %sw.epilog

sw.bb8:                                           ; preds = %if.then
  %m_linearLimits9 = getelementptr inbounds %class.btGeneric6DofSpring2Constraint, ptr %this1, i32 0, i32 5
  %m_motorERP = getelementptr inbounds %class.btTranslationalLimitMotor2, ptr %m_linearLimits9, i32 0, i32 5
  %call10 = call noundef ptr @_ZNK9btVector3cvPKfEv(ptr noundef nonnull align 4 dereferenceable(16) %m_motorERP)
  %7 = load i32, ptr %axis.addr, align 4
  %idxprom11 = sext i32 %7 to i64
  %arrayidx12 = getelementptr inbounds float, ptr %call10, i64 %idxprom11
  %8 = load float, ptr %arrayidx12, align 4
  store float %8, ptr %retVal, align 4
  br label %sw.epilog

sw.bb13:                                          ; preds = %if.then
  %m_linearLimits14 = getelementptr inbounds %class.btGeneric6DofSpring2Constraint, ptr %this1, i32 0, i32 5
  %m_motorCFM = getelementptr inbounds %class.btTranslationalLimitMotor2, ptr %m_linearLimits14, i32 0, i32 6
  %call15 = call noundef ptr @_ZNK9btVector3cvPKfEv(ptr noundef nonnull align 4 dereferenceable(16) %m_motorCFM)
  %9 = load i32, ptr %axis.addr, align 4
  %idxprom16 = sext i32 %9 to i64
  %arrayidx17 = getelementptr inbounds float, ptr %call15, i64 %idxprom16
  %10 = load float, ptr %arrayidx17, align 4
  store float %10, ptr %retVal, align 4
  br label %sw.epilog

sw.default:                                       ; preds = %if.then
  br label %sw.epilog

sw.epilog:                                        ; preds = %sw.default, %sw.bb13, %sw.bb8, %sw.bb3, %sw.bb
  br label %if.end47

if.else:                                          ; preds = %land.lhs.true, %entry
  %11 = load i32, ptr %axis.addr, align 4
  %cmp18 = icmp sge i32 %11, 3
  br i1 %cmp18, label %land.lhs.true19, label %if.else46

land.lhs.true19:                                  ; preds = %if.else
  %12 = load i32, ptr %axis.addr, align 4
  %cmp20 = icmp slt i32 %12, 6
  br i1 %cmp20, label %if.then21, label %if.else46

if.then21:                                        ; preds = %land.lhs.true19
  %13 = load i32, ptr %num.addr, align 4
  switch i32 %13, label %sw.default44 [
    i32 2, label %sw.bb22
    i32 4, label %sw.bb26
    i32 1, label %sw.bb32
    i32 3, label %sw.bb38
  ]

sw.bb22:                                          ; preds = %if.then21
  %m_angularLimits = getelementptr inbounds %class.btGeneric6DofSpring2Constraint, ptr %this1, i32 0, i32 6
  %14 = load i32, ptr %axis.addr, align 4
  %sub = sub nsw i32 %14, 3
  %idxprom23 = sext i32 %sub to i64
  %arrayidx24 = getelementptr inbounds [3 x %class.btRotationalLimitMotor2], ptr %m_angularLimits, i64 0, i64 %idxprom23
  %m_stopERP25 = getelementptr inbounds %class.btRotationalLimitMotor2, ptr %arrayidx24, i32 0, i32 3
  %15 = load float, ptr %m_stopERP25, align 4
  store float %15, ptr %retVal, align 4
  br label %sw.epilog45

sw.bb26:                                          ; preds = %if.then21
  %m_angularLimits27 = getelementptr inbounds %class.btGeneric6DofSpring2Constraint, ptr %this1, i32 0, i32 6
  %16 = load i32, ptr %axis.addr, align 4
  %sub28 = sub nsw i32 %16, 3
  %idxprom29 = sext i32 %sub28 to i64
  %arrayidx30 = getelementptr inbounds [3 x %class.btRotationalLimitMotor2], ptr %m_angularLimits27, i64 0, i64 %idxprom29
  %m_stopCFM31 = getelementptr inbounds %class.btRotationalLimitMotor2, ptr %arrayidx30, i32 0, i32 4
  %17 = load float, ptr %m_stopCFM31, align 8
  store float %17, ptr %retVal, align 4
  br label %sw.epilog45

sw.bb32:                                          ; preds = %if.then21
  %m_angularLimits33 = getelementptr inbounds %class.btGeneric6DofSpring2Constraint, ptr %this1, i32 0, i32 6
  %18 = load i32, ptr %axis.addr, align 4
  %sub34 = sub nsw i32 %18, 3
  %idxprom35 = sext i32 %sub34 to i64
  %arrayidx36 = getelementptr inbounds [3 x %class.btRotationalLimitMotor2], ptr %m_angularLimits33, i64 0, i64 %idxprom35
  %m_motorERP37 = getelementptr inbounds %class.btRotationalLimitMotor2, ptr %arrayidx36, i32 0, i32 5
  %19 = load float, ptr %m_motorERP37, align 4
  store float %19, ptr %retVal, align 4
  br label %sw.epilog45

sw.bb38:                                          ; preds = %if.then21
  %m_angularLimits39 = getelementptr inbounds %class.btGeneric6DofSpring2Constraint, ptr %this1, i32 0, i32 6
  %20 = load i32, ptr %axis.addr, align 4
  %sub40 = sub nsw i32 %20, 3
  %idxprom41 = sext i32 %sub40 to i64
  %arrayidx42 = getelementptr inbounds [3 x %class.btRotationalLimitMotor2], ptr %m_angularLimits39, i64 0, i64 %idxprom41
  %m_motorCFM43 = getelementptr inbounds %class.btRotationalLimitMotor2, ptr %arrayidx42, i32 0, i32 6
  %21 = load float, ptr %m_motorCFM43, align 8
  store float %21, ptr %retVal, align 4
  br label %sw.epilog45

sw.default44:                                     ; preds = %if.then21
  br label %sw.epilog45

sw.epilog45:                                      ; preds = %sw.default44, %sw.bb38, %sw.bb32, %sw.bb26, %sw.bb22
  br label %if.end

if.else46:                                        ; preds = %land.lhs.true19, %if.else
  br label %if.end

if.end:                                           ; preds = %if.else46, %sw.epilog45
  br label %if.end47

if.end47:                                         ; preds = %if.end, %sw.epilog
  %22 = load float, ptr %retVal, align 4
  ret float %22
}