; Function Attrs: mustprogress nofree norecurse nosync nounwind willreturn memory(argmem: read) uwtable
define dso_local noundef float @_ZNK30btGeneric6DofSpring2Constraint8getParamEii(ptr nocapture noundef nonnull readonly align 8 dereferenceable(1484) %this, i32 noundef %num, i32 noundef %axis) unnamed_addr #5 align 2 {
entry:
  %or.cond = icmp ult i32 %axis, 3
  br i1 %or.cond, label %if.then, label %if.else

if.then:                                          ; preds = %entry
  switch i32 %num, label %if.end47 [
    i32 2, label %sw.bb
    i32 4, label %sw.bb3
    i32 1, label %sw.bb8
    i32 3, label %sw.bb13
  ]

sw.bb:                                            ; preds = %if.then
  %m_stopERP = getelementptr inbounds i8, ptr %this, i64 752
  %idxprom = zext nneg i32 %axis to i64
  %arrayidx = getelementptr inbounds float, ptr %m_stopERP, i64 %idxprom
  %0 = load float, ptr %arrayidx, align 4
  br label %if.end47

sw.bb3:                                           ; preds = %if.then
  %m_stopCFM = getelementptr inbounds i8, ptr %this, i64 768
  %idxprom6 = zext nneg i32 %axis to i64
  %arrayidx7 = getelementptr inbounds float, ptr %m_stopCFM, i64 %idxprom6
  %1 = load float, ptr %arrayidx7, align 4
  br label %if.end47

sw.bb8:                                           ; preds = %if.then
  %m_motorERP = getelementptr inbounds i8, ptr %this, i64 784
  %idxprom11 = zext nneg i32 %axis to i64
  %arrayidx12 = getelementptr inbounds float, ptr %m_motorERP, i64 %idxprom11
  %2 = load float, ptr %arrayidx12, align 4
  br label %if.end47

sw.bb13:                                          ; preds = %if.then
  %m_motorCFM = getelementptr inbounds i8, ptr %this, i64 800
  %idxprom16 = zext nneg i32 %axis to i64
  %arrayidx17 = getelementptr inbounds float, ptr %m_motorCFM, i64 %idxprom16
  %3 = load float, ptr %arrayidx17, align 4
  br label %if.end47

if.else:                                          ; preds = %entry
  %4 = add i32 %axis, -3
  %or.cond1 = icmp ult i32 %4, 3
  br i1 %or.cond1, label %if.then21, label %if.end47

if.then21:                                        ; preds = %if.else
  switch i32 %num, label %if.end47 [
    i32 2, label %sw.bb22
    i32 4, label %sw.bb26
    i32 1, label %sw.bb32
    i32 3, label %sw.bb38
  ]

sw.bb22:                                          ; preds = %if.then21
  %m_angularLimits = getelementptr inbounds i8, ptr %this, i64 992
  %idxprom23 = zext nneg i32 %4 to i64
  %m_stopERP25 = getelementptr inbounds [3 x %class.btRotationalLimitMotor2], ptr %m_angularLimits, i64 0, i64 %idxprom23, i32 3
  %5 = load float, ptr %m_stopERP25, align 4
  br label %if.end47

sw.bb26:                                          ; preds = %if.then21
  %m_angularLimits27 = getelementptr inbounds i8, ptr %this, i64 992
  %idxprom29 = zext nneg i32 %4 to i64
  %m_stopCFM31 = getelementptr inbounds [3 x %class.btRotationalLimitMotor2], ptr %m_angularLimits27, i64 0, i64 %idxprom29, i32 4
  %6 = load float, ptr %m_stopCFM31, align 8
  br label %if.end47

sw.bb32:                                          ; preds = %if.then21
  %m_angularLimits33 = getelementptr inbounds i8, ptr %this, i64 992
  %idxprom35 = zext nneg i32 %4 to i64
  %m_motorERP37 = getelementptr inbounds [3 x %class.btRotationalLimitMotor2], ptr %m_angularLimits33, i64 0, i64 %idxprom35, i32 5
  %7 = load float, ptr %m_motorERP37, align 4
  br label %if.end47

sw.bb38:                                          ; preds = %if.then21
  %m_angularLimits39 = getelementptr inbounds i8, ptr %this, i64 992
  %idxprom41 = zext nneg i32 %4 to i64
  %m_motorCFM43 = getelementptr inbounds [3 x %class.btRotationalLimitMotor2], ptr %m_angularLimits39, i64 0, i64 %idxprom41, i32 6
  %8 = load float, ptr %m_motorCFM43, align 8
  br label %if.end47

if.end47:                                         ; preds = %if.then21, %sw.bb38, %sw.bb32, %sw.bb26, %sw.bb22, %if.else, %sw.bb, %sw.bb3, %sw.bb8, %sw.bb13, %if.then
  %retVal.0 = phi float [ 0.000000e+00, %if.then ], [ %3, %sw.bb13 ], [ %2, %sw.bb8 ], [ %1, %sw.bb3 ], [ %0, %sw.bb ], [ 0.000000e+00, %if.then21 ], [ %8, %sw.bb38 ], [ %7, %sw.bb32 ], [ %6, %sw.bb26 ], [ %5, %sw.bb22 ], [ 0.000000e+00, %if.else ]
  ret float %retVal.0
}